; ModuleID = 'source-C-CXX/30/345.c'
source_filename = "source-C-CXX/30/345.c"
target datalayout = "e-m:e-p270:32:32-p271:32:32-p272:64:64-i64:64-f80:128-n8:16:32:64-S128"
target triple = "x86_64-pc-linux-gnu"

%struct.s = type { [50 x i8], [55 x i8], i8, i32, [50 x i8], [50 x i8], %struct.s* }

@.str = private unnamed_addr constant [3 x i8] c"%s\00", align 1
@.str.1 = private unnamed_addr constant [4 x i8] c"end\00", align 1
@.str.2 = private unnamed_addr constant [4 x i8] c" %c\00", align 1
@.str.3 = private unnamed_addr constant [4 x i8] c" %d\00", align 1
@.str.4 = private unnamed_addr constant [4 x i8] c" %s\00", align 1
@.str.5 = private unnamed_addr constant [19 x i8] c"%s %s %c %d %s %s\0A\00", align 1

; Function Attrs: nofree nounwind sspstrong uwtable
define dso_local void @main() local_unnamed_addr #0 {
  %1 = tail call noalias align 16 dereferenceable_or_null(100) i8* @malloc(i64 100) #4
  %2 = bitcast i8* %1 to %struct.s*
  %3 = getelementptr inbounds %struct.s, %struct.s* %2, i64 0, i32 0, i64 0
  %4 = tail call i32 (i8*, ...) @__isoc99_scanf(i8* getelementptr inbounds ([3 x i8], [3 x i8]* @.str, i64 0, i64 0), i8* %3)
  %5 = getelementptr inbounds %struct.s, %struct.s* %2, i64 0, i32 6
  store %struct.s* null, %struct.s** %5, align 8, !tbaa !5
  %6 = tail call i32 @strcmp(i8* noundef nonnull dereferenceable(1) %3, i8* noundef nonnull dereferenceable(4) getelementptr inbounds ([4 x i8], [4 x i8]* @.str.1, i64 0, i64 0)) #5
  %7 = icmp eq i32 %6, 0
  br i1 %7, label %42, label %8

8:                                                ; preds = %0, %8
  %9 = phi %struct.s* [ %21, %8 ], [ %2, %0 ]
  %10 = getelementptr inbounds %struct.s, %struct.s* %9, i64 0, i32 1, i64 0
  %11 = tail call i32 (i8*, ...) @__isoc99_scanf(i8* getelementptr inbounds ([3 x i8], [3 x i8]* @.str, i64 0, i64 0), i8* nonnull %10)
  %12 = getelementptr inbounds %struct.s, %struct.s* %9, i64 0, i32 2
  %13 = tail call i32 (i8*, ...) @__isoc99_scanf(i8* getelementptr inbounds ([4 x i8], [4 x i8]* @.str.2, i64 0, i64 0), i8* nonnull %12)
  %14 = getelementptr inbounds %struct.s, %struct.s* %9, i64 0, i32 3
  %15 = tail call i32 (i8*, ...) @__isoc99_scanf(i8* getelementptr inbounds ([4 x i8], [4 x i8]* @.str.3, i64 0, i64 0), i32* nonnull %14)
  %16 = getelementptr inbounds %struct.s, %struct.s* %9, i64 0, i32 4, i64 0
  %17 = tail call i32 (i8*, ...) @__isoc99_scanf(i8* getelementptr inbounds ([4 x i8], [4 x i8]* @.str.4, i64 0, i64 0), i8* nonnull %16)
  %18 = getelementptr inbounds %struct.s, %struct.s* %9, i64 0, i32 5, i64 0
  %19 = tail call i32 (i8*, ...) @__isoc99_scanf(i8* getelementptr inbounds ([4 x i8], [4 x i8]* @.str.4, i64 0, i64 0), i8* nonnull %18)
  %20 = tail call noalias align 16 dereferenceable_or_null(100) i8* @malloc(i64 100) #4
  %21 = bitcast i8* %20 to %struct.s*
  %22 = getelementptr inbounds %struct.s, %struct.s* %21, i64 0, i32 0, i64 0
  %23 = tail call i32 (i8*, ...) @__isoc99_scanf(i8* getelementptr inbounds ([3 x i8], [3 x i8]* @.str, i64 0, i64 0), i8* %22)
  %24 = getelementptr inbounds %struct.s, %struct.s* %21, i64 0, i32 6
  store %struct.s* %9, %struct.s** %24, align 8, !tbaa !5
  %25 = tail call i32 @strcmp(i8* noundef nonnull dereferenceable(1) %22, i8* noundef nonnull dereferenceable(4) getelementptr inbounds ([4 x i8], [4 x i8]* @.str.1, i64 0, i64 0)) #5
  %26 = icmp eq i32 %25, 0
  br i1 %26, label %27, label %8, !llvm.loop !11

27:                                               ; preds = %8, %27
  %28 = phi %struct.s* [ %40, %27 ], [ %9, %8 ]
  %29 = getelementptr inbounds %struct.s, %struct.s* %28, i64 0, i32 0, i64 0
  %30 = getelementptr inbounds %struct.s, %struct.s* %28, i64 0, i32 1, i64 0
  %31 = getelementptr inbounds %struct.s, %struct.s* %28, i64 0, i32 2
  %32 = load i8, i8* %31, align 1, !tbaa !13
  %33 = sext i8 %32 to i32
  %34 = getelementptr inbounds %struct.s, %struct.s* %28, i64 0, i32 3
  %35 = load i32, i32* %34, align 4, !tbaa !14
  %36 = getelementptr inbounds %struct.s, %struct.s* %28, i64 0, i32 4, i64 0
  %37 = getelementptr inbounds %struct.s, %struct.s* %28, i64 0, i32 5, i64 0
  %38 = tail call i32 (i8*, ...) @printf(i8* nonnull dereferenceable(1) getelementptr inbounds ([19 x i8], [19 x i8]* @.str.5, i64 0, i64 0), i8* nonnull %29, i8* nonnull %30, i32 %33, i32 %35, i8* nonnull %36, i8* nonnull %37)
  %39 = getelementptr inbounds %struct.s, %struct.s* %28, i64 0, i32 6
  %40 = load %struct.s*, %struct.s** %39, align 8, !tbaa !5
  %41 = icmp eq %struct.s* %40, null
  br i1 %41, label %42, label %27, !llvm.loop !15

42:                                               ; preds = %27, %0
  ret void
}

; Function Attrs: inaccessiblememonly mustprogress nofree nounwind willreturn
declare noalias noundef align 16 i8* @malloc(i64 noundef) local_unnamed_addr #1

; Function Attrs: nofree nounwind
declare noundef i32 @__isoc99_scanf(i8* nocapture noundef readonly, ...) local_unnamed_addr #2

; Function Attrs: argmemonly mustprogress nofree nounwind readonly willreturn
declare i32 @strcmp(i8* nocapture, i8* nocapture) local_unnamed_addr #3

; Function Attrs: nofree nounwind
declare noundef i32 @printf(i8* nocapture noundef readonly, ...) local_unnamed_addr #2


!llvm.module.flags = !{!0, !1, !2, !3}
!llvm.ident = !{!4}

!0 = !{i32 1, !"wchar_size", i32 4}
!1 = !{i32 7, !"PIC Level", i32 2}
!2 = !{i32 7, !"PIE Level", i32 2}
!3 = !{i32 7, !"uwtable", i32 1}
!4 = !{!"clang version 13.0.0"}
!5 = !{!6, !10, i64 216}
!6 = !{!"s", !7, i64 0, !7, i64 50, !7, i64 105, !9, i64 108, !7, i64 112, !7, i64 162, !10, i64 216}
!7 = !{!"omnipotent char", !8, i64 0}
!8 = !{!"Simple C/C++ TBAA"}
!9 = !{!"int", !7, i64 0}
!10 = !{!"any pointer", !7, i64 0}
!11 = distinct !{!11, !12}
!12 = !{!"llvm.loop.mustprogress"}
!13 = !{!6, !7, i64 105}
!14 = !{!6, !9, i64 108}
!15 = distinct !{!15, !12}
